target datalayout = "e-m:e-p270:32:32-p271:32:32-p272:64:64-i64:64-i128:128-f80:128-n8:16:32:64-S128"
target triple = "x86_64-unknown-linux-gnu"

%"struct.std::atomic" = type { %"struct.std::__atomic_base" }
%"struct.std::__atomic_base" = type { ptr }

@_ZN7rocksdb23JemallocNodumpAllocator15original_alloc_E = global %"struct.std::atomic" zeroinitializer, align 8
@stderr = external global ptr, align 8
@.str.15 = private unnamed_addr constant [68 x i8] c"JemallocNodumpAllocator failed to set MADV_DONTDUMP, error code: %d\00", align 1

; Function Attrs: mustprogress nounwind uwtable
define linkonce_odr noundef i32 @_ZStanSt12memory_orderSt23__memory_order_modifier(i32 noundef %__m, i32 noundef %__mod) #3 comdat {
entry:
  %__m.addr = alloca i32, align 4
  %__mod.addr = alloca i32, align 4
  store i32 %__m, ptr %__m.addr, align 4
  store i32 %__mod, ptr %__mod.addr, align 4
  %0 = load i32, ptr %__m.addr, align 4
  %1 = load i32, ptr %__mod.addr, align 4
  %and = and i32 %0, %1
  ret i32 %and
}

; Function Attrs: mustprogress nounwind uwtable
define linkonce_odr noundef ptr @_ZNKSt6atomicIPFPvP14extent_hooks_sS0_mmPbS3_jEE4loadESt12memory_order(ptr noundef nonnull align 8 dereferenceable(8) %this, i32 noundef %__m) #3 comdat align 2 {
entry:
  %this.addr.i = alloca ptr, align 8
  %__m.addr.i = alloca i32, align 4
  %__b.i = alloca i32, align 4
  %atomic-temp.i = alloca ptr, align 8
  %this.addr = alloca ptr, align 8
  %__m.addr = alloca i32, align 4
  store ptr %this, ptr %this.addr, align 8
  store i32 %__m, ptr %__m.addr, align 4
  %this1 = load ptr, ptr %this.addr, align 8
  %_M_b = getelementptr inbounds %"struct.std::atomic", ptr %this1, i32 0, i32 0
  %0 = load i32, ptr %__m.addr, align 4
  store ptr %_M_b, ptr %this.addr.i, align 8
  store i32 %0, ptr %__m.addr.i, align 4
  %this1.i = load ptr, ptr %this.addr.i, align 8
  %1 = load i32, ptr %__m.addr.i, align 4
  %call.i = call noundef i32 @_ZStanSt12memory_orderSt23__memory_order_modifier(i32 noundef %1, i32 noundef 65535)
  store i32 %call.i, ptr %__b.i, align 4
  %2 = load i32, ptr %__m.addr.i, align 4
  switch i32 %2, label %monotonic.i [
    i32 1, label %acquire.i
    i32 2, label %acquire.i
    i32 5, label %seqcst.i
  ]

monotonic.i:                                      ; preds = %entry
  %3 = load atomic i64, ptr %this1.i monotonic, align 8
  store i64 %3, ptr %atomic-temp.i, align 8
  br label %_ZNKSt13__atomic_baseIPFPvP14extent_hooks_sS0_mmPbS3_jEE4loadESt12memory_order.exit

acquire.i:                                        ; preds = %entry, %entry
  %4 = load atomic i64, ptr %this1.i acquire, align 8
  store i64 %4, ptr %atomic-temp.i, align 8
  br label %_ZNKSt13__atomic_baseIPFPvP14extent_hooks_sS0_mmPbS3_jEE4loadESt12memory_order.exit

seqcst.i:                                         ; preds = %entry
  %5 = load atomic i64, ptr %this1.i seq_cst, align 8
  store i64 %5, ptr %atomic-temp.i, align 8
  br label %_ZNKSt13__atomic_baseIPFPvP14extent_hooks_sS0_mmPbS3_jEE4loadESt12memory_order.exit

_ZNKSt13__atomic_baseIPFPvP14extent_hooks_sS0_mmPbS3_jEE4loadESt12memory_order.exit: ; preds = %seqcst.i, %acquire.i, %monotonic.i
  %6 = load ptr, ptr %atomic-temp.i, align 8
  ret ptr %6
}

; Function Attrs: mustprogress uwtable
define noundef ptr @_ZN7rocksdb23JemallocNodumpAllocator5AllocEP14extent_hooks_sPvmmPbS4_j(ptr noundef %extent, ptr noundef %new_addr, i64 noundef %size, i64 noundef %alignment, ptr noundef %zero, ptr noundef %commit, i32 noundef %arena_ind) #2 align 2 {
entry:
  %extent.addr = alloca ptr, align 8
  %new_addr.addr = alloca ptr, align 8
  %size.addr = alloca i64, align 8
  %alignment.addr = alloca i64, align 8
  %zero.addr = alloca ptr, align 8
  %commit.addr = alloca ptr, align 8
  %arena_ind.addr = alloca i32, align 4
  %original_alloc = alloca ptr, align 8
  %result = alloca ptr, align 8
  %ret = alloca i32, align 4
  store ptr %extent, ptr %extent.addr, align 8
  store ptr %new_addr, ptr %new_addr.addr, align 8
  store i64 %size, ptr %size.addr, align 8
  store i64 %alignment, ptr %alignment.addr, align 8
  store ptr %zero, ptr %zero.addr, align 8
  store ptr %commit, ptr %commit.addr, align 8
  store i32 %arena_ind, ptr %arena_ind.addr, align 4
  %call = call noundef ptr @_ZNKSt6atomicIPFPvP14extent_hooks_sS0_mmPbS3_jEE4loadESt12memory_order(ptr noundef nonnull align 8 dereferenceable(8) @_ZN7rocksdb23JemallocNodumpAllocator15original_alloc_E, i32 noundef 0) #4
  store ptr %call, ptr %original_alloc, align 8
  %0 = load ptr, ptr %original_alloc, align 8
  %1 = load ptr, ptr %extent.addr, align 8
  %2 = load ptr, ptr %new_addr.addr, align 8
  %3 = load i64, ptr %size.addr, align 8
  %4 = load i64, ptr %alignment.addr, align 8
  %5 = load ptr, ptr %zero.addr, align 8
  %6 = load ptr, ptr %commit.addr, align 8
  %7 = load i32, ptr %arena_ind.addr, align 4
  %call1 = call noundef ptr %0(ptr noundef %1, ptr noundef %2, i64 noundef %3, i64 noundef %4, ptr noundef %5, ptr noundef %6, i32 noundef %7)
  store ptr %call1, ptr %result, align 8
  %8 = load ptr, ptr %result, align 8
  %cmp = icmp ne ptr %8, null
  br i1 %cmp, label %if.then, label %if.end6

if.then:                                          ; preds = %entry
  %9 = load ptr, ptr %result, align 8
  %10 = load i64, ptr %size.addr, align 8
  %call2 = call i32 @madvise(ptr noundef %9, i64 noundef %10, i32 noundef 16) #4
  store i32 %call2, ptr %ret, align 4
  %11 = load i32, ptr %ret, align 4
  %cmp3 = icmp ne i32 %11, 0
  br i1 %cmp3, label %if.then4, label %if.end

if.then4:                                         ; preds = %if.then
  %12 = load ptr, ptr @stderr, align 8
  %13 = load i32, ptr %ret, align 4
  %call5 = call i32 (ptr, ptr, ...) @fprintf(ptr noundef %12, ptr noundef @.str.15, i32 noundef %13)
  br label %if.end

if.end:                                           ; preds = %if.then4, %if.then
  br label %if.end6

if.end6:                                          ; preds = %if.end, %entry
  %14 = load ptr, ptr %result, align 8
  ret ptr %14
}