; Function Attrs: mustprogress uwtable
define noundef ptr @_ZN7rocksdb23JemallocNodumpAllocator5AllocEP14extent_hooks_sPvmmPbS4_j(ptr noundef %extent, ptr noundef %new_addr, i64 noundef %size, i64 noundef %alignment, ptr noundef %zero, ptr noundef %commit, i32 noundef %arena_ind) #1 align 2 {
entry:
  %0 = load atomic i64, ptr @_ZN7rocksdb23JemallocNodumpAllocator15original_alloc_E monotonic, align 8
  %atomic-temp.i.0.i = inttoptr i64 %0 to ptr
  %call1 = tail call noundef ptr %atomic-temp.i.0.i(ptr noundef %extent, ptr noundef %new_addr, i64 noundef %size, i64 noundef %alignment, ptr noundef %zero, ptr noundef %commit, i32 noundef %arena_ind)
  %cmp.not = icmp eq ptr %call1, null
  br i1 %cmp.not, label %if.end6, label %if.then

if.then:                                          ; preds = %entry
  %call2 = tail call i32 @madvise(ptr noundef nonnull %call1, i64 noundef %size, i32 noundef 16) #24
  %cmp3.not = icmp eq i32 %call2, 0
  br i1 %cmp3.not, label %if.end6, label %if.then4

if.then4:                                         ; preds = %if.then
  %1 = load ptr, ptr @stderr, align 8
  %call5 = tail call i32 (ptr, ptr, ...) @fprintf(ptr noundef %1, ptr noundef nonnull @.str.15, i32 noundef %call2) #29
  br label %if.end6

if.end6:                                          ; preds = %if.then, %if.then4, %entry
  ret ptr %call1
}